target datalayout = "e-m:e-p270:32:32-p271:32:32-p272:64:64-i64:64-i128:128-f80:128-n8:16:32:64-S128"
target triple = "x86_64-pc-linux-gnu"

%struct.PJconsts = type { ptr, ptr, ptr, ptr, ptr, ptr, ptr, ptr, ptr, ptr, ptr, ptr, i32, ptr, ptr, ptr, ptr, ptr, ptr, ptr, ptr, double, double, double, double, double, double, double, double, double, double, double, double, double, double, double, double, double, double, double, double, double, double, i32, i32, i32, i32, i32, i32, i32, i32, i32, i32, i32, ptr, ptr, ptr, ptr, ptr, ptr, double, double, double, double, double, double, double, double, double, double, double, i32, [7 x double], i32, ptr, ptr, double, double, i32, [4 x i8], %"class.std::shared_ptr", i8, double, i8, %"class.std::__cxx11::basic_string", %"class.std::__cxx11::basic_string", %"class.std::__cxx11::basic_string", i8, %"class.std::vector", i32, %"class.std::vector.3", i32, i8, i8, i8, ptr }
%"class.std::shared_ptr" = type { %"class.std::__shared_ptr" }
%"class.std::__shared_ptr" = type { ptr, %"class.std::__shared_count" }
%"class.std::__shared_count" = type { ptr }
%"class.std::__cxx11::basic_string" = type { %"struct.std::__cxx11::basic_string<char>::_Alloc_hider", i64, %union.anon }
%"struct.std::__cxx11::basic_string<char>::_Alloc_hider" = type { ptr }
%union.anon = type { i64, [8 x i8] }
%"class.std::vector" = type { %"struct.std::_Vector_base" }
%"struct.std::_Vector_base" = type { %"struct.std::_Vector_base<osgeo::proj::operation::GridDescription, std::allocator<osgeo::proj::operation::GridDescription>>::_Vector_impl" }
%"struct.std::_Vector_base<osgeo::proj::operation::GridDescription, std::allocator<osgeo::proj::operation::GridDescription>>::_Vector_impl" = type { %"struct.std::_Vector_base<osgeo::proj::operation::GridDescription, std::allocator<osgeo::proj::operation::GridDescription>>::_Vector_impl_data" }
%"struct.std::_Vector_base<osgeo::proj::operation::GridDescription, std::allocator<osgeo::proj::operation::GridDescription>>::_Vector_impl_data" = type { ptr, ptr, ptr }
%"class.std::vector.3" = type { %"struct.std::_Vector_base.4" }
%"struct.std::_Vector_base.4" = type { %"struct.std::_Vector_base<PJCoordOperation, std::allocator<PJCoordOperation>>::_Vector_impl" }
%"struct.std::_Vector_base<PJCoordOperation, std::allocator<PJCoordOperation>>::_Vector_impl" = type { %"struct.std::_Vector_base<PJCoordOperation, std::allocator<PJCoordOperation>>::_Vector_impl_data" }
%"struct.std::_Vector_base<PJCoordOperation, std::allocator<PJCoordOperation>>::_Vector_impl_data" = type { ptr, ptr, ptr }
%"struct.(anonymous namespace)::pj_healpix_data" = type { i32, i32, double, double, ptr }
%struct.PJ_XY = type { double, double }
%struct.PJ_LP = type { double, double }

; Function Attrs: mustprogress nounwind uwtable
define internal noundef double @_ZL4signd(double noundef %0) #5 {
  %2 = alloca double, align 8
  store double %0, ptr %2, align 8, !tbaa !48
  %3 = load double, ptr %2, align 8, !tbaa !48
  %4 = fcmp ogt double %3, 0.000000e+00
  br i1 %4, label %5, label %6

5:                                                ; preds = %1
  br label %10

6:                                                ; preds = %1
  %7 = load double, ptr %2, align 8, !tbaa !48
  %8 = fcmp olt double %7, 0.000000e+00
  %9 = select i1 %8, i32 -1, i32 0
  br label %10

10:                                               ; preds = %6, %5
  %11 = phi i32 [ 1, %5 ], [ %9, %6 ]
  %12 = sitofp i32 %11 to double
  ret double %12
}

; Function Attrs: mustprogress nounwind uwtable
define internal { double, double } @_ZL6rotate5PJ_XYd(double %0, double %1, double noundef %2) #5 {
  %4 = alloca %struct.PJ_XY, align 8
  %5 = alloca %struct.PJ_XY, align 8
  %6 = alloca double, align 8
  %7 = getelementptr inbounds nuw { double, double }, ptr %5, i32 0, i32 0
  store double %0, ptr %7, align 8
  %8 = getelementptr inbounds nuw { double, double }, ptr %5, i32 0, i32 1
  store double %1, ptr %8, align 8
  store double %2, ptr %6, align 8, !tbaa !48
  %9 = getelementptr inbounds nuw %struct.PJ_XY, ptr %5, i32 0, i32 0
  %10 = load double, ptr %9, align 8, !tbaa !64
  %11 = load double, ptr %6, align 8, !tbaa !48
  %12 = call double @cos(double noundef %11) #10, !tbaa !58
  %13 = getelementptr inbounds nuw %struct.PJ_XY, ptr %5, i32 0, i32 1
  %14 = load double, ptr %13, align 8, !tbaa !66
  %15 = load double, ptr %6, align 8, !tbaa !48
  %16 = call double @sin(double noundef %15) #10, !tbaa !58
  %17 = fmul double %14, %16
  %18 = fneg double %17
  %19 = call double @llvm.fmuladd.f64(double %10, double %12, double %18)
  %20 = getelementptr inbounds nuw %struct.PJ_XY, ptr %4, i32 0, i32 0
  store double %19, ptr %20, align 8, !tbaa !64
  %21 = getelementptr inbounds nuw %struct.PJ_XY, ptr %5, i32 0, i32 1
  %22 = load double, ptr %21, align 8, !tbaa !66
  %23 = load double, ptr %6, align 8, !tbaa !48
  %24 = call double @cos(double noundef %23) #10, !tbaa !58
  %25 = getelementptr inbounds nuw %struct.PJ_XY, ptr %5, i32 0, i32 0
  %26 = load double, ptr %25, align 8, !tbaa !64
  %27 = load double, ptr %6, align 8, !tbaa !48
  %28 = call double @sin(double noundef %27) #10, !tbaa !58
  %29 = fmul double %26, %28
  %30 = call double @llvm.fmuladd.f64(double %22, double %24, double %29)
  %31 = getelementptr inbounds nuw %struct.PJ_XY, ptr %4, i32 0, i32 1
  store double %30, ptr %31, align 8, !tbaa !66
  %32 = load { double, double }, ptr %4, align 8
  ret { double, double } %32
}

; Function Attrs: mustprogress nounwind uwtable
define internal { double, double } @_ZL14healpix_sphere5PJ_LP(double %0, double %1) #5 {
  %3 = alloca %struct.PJ_XY, align 8
  %4 = alloca %struct.PJ_LP, align 8
  %5 = alloca double, align 8
  %6 = alloca double, align 8
  %7 = alloca double, align 8
  %8 = alloca double, align 8
  %9 = alloca double, align 8
  %10 = alloca double, align 8
  %11 = getelementptr inbounds nuw { double, double }, ptr %4, i32 0, i32 0
  store double %0, ptr %11, align 8
  %12 = getelementptr inbounds nuw { double, double }, ptr %4, i32 0, i32 1
  store double %1, ptr %12, align 8
  call void @llvm.lifetime.start.p0(i64 8, ptr %5) #10
  %13 = getelementptr inbounds nuw %struct.PJ_LP, ptr %4, i32 0, i32 0
  %14 = load double, ptr %13, align 8, !tbaa !67
  store double %14, ptr %5, align 8, !tbaa !48
  call void @llvm.lifetime.start.p0(i64 8, ptr %6) #10
  %15 = getelementptr inbounds nuw %struct.PJ_LP, ptr %4, i32 0, i32 1
  %16 = load double, ptr %15, align 8, !tbaa !61
  store double %16, ptr %6, align 8, !tbaa !48
  call void @llvm.lifetime.start.p0(i64 8, ptr %7) #10
  %17 = call double @asin(double noundef 0x3FE5555555555555) #10, !tbaa !58
  store double %17, ptr %7, align 8, !tbaa !48
  %18 = load double, ptr %6, align 8, !tbaa !48
  %19 = call double @llvm.fabs.f64(double %18)
  %20 = load double, ptr %7, align 8, !tbaa !48
  %21 = fcmp ole double %19, %20
  br i1 %21, label %22, label %29

22:                                               ; preds = %2
  %23 = load double, ptr %5, align 8, !tbaa !48
  %24 = getelementptr inbounds nuw %struct.PJ_XY, ptr %3, i32 0, i32 0
  store double %23, ptr %24, align 8, !tbaa !64
  %25 = load double, ptr %6, align 8, !tbaa !48
  %26 = call double @sin(double noundef %25) #10, !tbaa !58
  %27 = fmul double 0x3FF2D97C7F3321D2, %26
  %28 = getelementptr inbounds nuw %struct.PJ_XY, ptr %3, i32 0, i32 1
  store double %27, ptr %28, align 8, !tbaa !66
  br label %61

29:                                               ; preds = %2
  call void @llvm.lifetime.start.p0(i64 8, ptr %8) #10
  call void @llvm.lifetime.start.p0(i64 8, ptr %9) #10
  %30 = load double, ptr %6, align 8, !tbaa !48
  %31 = call double @sin(double noundef %30) #10, !tbaa !58
  %32 = call double @llvm.fabs.f64(double %31)
  %33 = fsub double 1.000000e+00, %32
  %34 = fmul double 3.000000e+00, %33
  %35 = call double @sqrt(double noundef %34) #10, !tbaa !58
  store double %35, ptr %9, align 8, !tbaa !48
  call void @llvm.lifetime.start.p0(i64 8, ptr %10) #10
  %36 = load double, ptr %5, align 8, !tbaa !48
  %37 = fmul double 2.000000e+00, %36
  %38 = fdiv double %37, 0x400921FB54442D18
  %39 = fadd double %38, 2.000000e+00
  %40 = call double @llvm.floor.f64(double %39)
  store double %40, ptr %10, align 8, !tbaa !48
  %41 = load double, ptr %10, align 8, !tbaa !48
  %42 = fcmp oge double %41, 4.000000e+00
  br i1 %42, label %43, label %44

43:                                               ; preds = %29
  store double 3.000000e+00, ptr %10, align 8, !tbaa !48
  br label %44

44:                                               ; preds = %43, %29
  %45 = load double, ptr %10, align 8, !tbaa !48
  %46 = call double @llvm.fmuladd.f64(double 0x3FF921FB54442D18, double %45, double 0xC002D97C7F3321D2)
  store double %46, ptr %8, align 8, !tbaa !48
  %47 = load double, ptr %8, align 8, !tbaa !48
  %48 = load double, ptr %5, align 8, !tbaa !48
  %49 = load double, ptr %8, align 8, !tbaa !48
  %50 = fsub double %48, %49
  %51 = load double, ptr %9, align 8, !tbaa !48
  %52 = call double @llvm.fmuladd.f64(double %50, double %51, double %47)
  %53 = getelementptr inbounds nuw %struct.PJ_XY, ptr %3, i32 0, i32 0
  store double %52, ptr %53, align 8, !tbaa !64
  %54 = load double, ptr %6, align 8, !tbaa !48
  %55 = call noundef double @_ZL4signd(double noundef %54)
  %56 = fmul double %55, 0x3FE921FB54442D18
  %57 = load double, ptr %9, align 8, !tbaa !48
  %58 = fsub double 2.000000e+00, %57
  %59 = fmul double %56, %58
  %60 = getelementptr inbounds nuw %struct.PJ_XY, ptr %3, i32 0, i32 1
  store double %59, ptr %60, align 8, !tbaa !66
  call void @llvm.lifetime.end.p0(i64 8, ptr %10) #10
  call void @llvm.lifetime.end.p0(i64 8, ptr %9) #10
  call void @llvm.lifetime.end.p0(i64 8, ptr %8) #10
  br label %61

61:                                               ; preds = %44, %22
  call void @llvm.lifetime.end.p0(i64 8, ptr %7) #10
  call void @llvm.lifetime.end.p0(i64 8, ptr %6) #10
  call void @llvm.lifetime.end.p0(i64 8, ptr %5) #10
  %62 = load { double, double }, ptr %3, align 8
  ret { double, double } %62
}

; Function Attrs: mustprogress nounwind uwtable
define internal { double, double } @_ZL17s_healpix_forward5PJ_LPP8PJconsts(double %0, double %1, ptr noundef %2) #5 {
  %4 = alloca %struct.PJ_XY, align 8
  %5 = alloca %struct.PJ_LP, align 8
  %6 = alloca ptr, align 8
  %7 = alloca ptr, align 8
  %8 = alloca %struct.PJ_XY, align 8
  %9 = alloca %struct.PJ_LP, align 8
  %10 = getelementptr inbounds nuw { double, double }, ptr %5, i32 0, i32 0
  store double %0, ptr %10, align 8
  %11 = getelementptr inbounds nuw { double, double }, ptr %5, i32 0, i32 1
  store double %1, ptr %11, align 8
  store ptr %2, ptr %6, align 8, !tbaa !3
  call void @llvm.lifetime.start.p0(i64 8, ptr %7) #10
  %12 = load ptr, ptr %6, align 8, !tbaa !3
  %13 = getelementptr inbounds nuw %struct.PJconsts, ptr %12, i32 0, i32 11
  %14 = load ptr, ptr %13, align 8, !tbaa !43
  store ptr %14, ptr %7, align 8, !tbaa !41
  call void @llvm.memcpy.p0.p0.i64(ptr align 8 %9, ptr align 8 %5, i64 16, i1 false), !tbaa.struct !63
  %15 = getelementptr inbounds nuw { double, double }, ptr %9, i32 0, i32 0
  %16 = load double, ptr %15, align 8
  %17 = getelementptr inbounds nuw { double, double }, ptr %9, i32 0, i32 1
  %18 = load double, ptr %17, align 8
  %19 = call { double, double } @_ZL14healpix_sphere5PJ_LP(double %16, double %18)
  %20 = getelementptr inbounds nuw { double, double }, ptr %8, i32 0, i32 0
  %21 = extractvalue { double, double } %19, 0
  store double %21, ptr %20, align 8
  %22 = getelementptr inbounds nuw { double, double }, ptr %8, i32 0, i32 1
  %23 = extractvalue { double, double } %19, 1
  store double %23, ptr %22, align 8
  %24 = load ptr, ptr %7, align 8, !tbaa !41
  %25 = getelementptr inbounds nuw %"struct.(anonymous namespace)::pj_healpix_data", ptr %24, i32 0, i32 2
  %26 = load double, ptr %25, align 8, !tbaa !49
  %27 = fneg double %26
  %28 = getelementptr inbounds nuw { double, double }, ptr %8, i32 0, i32 0
  %29 = load double, ptr %28, align 8
  %30 = getelementptr inbounds nuw { double, double }, ptr %8, i32 0, i32 1
  %31 = load double, ptr %30, align 8
  %32 = call { double, double } @_ZL6rotate5PJ_XYd(double %29, double %31, double noundef %27)
  %33 = getelementptr inbounds nuw { double, double }, ptr %4, i32 0, i32 0
  %34 = extractvalue { double, double } %32, 0
  store double %34, ptr %33, align 8
  %35 = getelementptr inbounds nuw { double, double }, ptr %4, i32 0, i32 1
  %36 = extractvalue { double, double } %32, 1
  store double %36, ptr %35, align 8
  call void @llvm.lifetime.end.p0(i64 8, ptr %7) #10
  %37 = load { double, double }, ptr %4, align 8
  ret { double, double } %37
}