; Function Attrs: mustprogress nofree nounwind willreturn memory(readwrite, inaccessiblemem: write) uwtable
define internal { double, double } @_ZL17s_healpix_forward5PJ_LPP8PJconsts(double %0, double %1, ptr noundef readonly captures(none) %2) #5 {
  %4 = getelementptr inbounds nuw i8, ptr %2, i64 88
  %5 = load ptr, ptr %4, align 8, !tbaa !40
  %6 = tail call double @llvm.fabs.f64(double %1)
  %7 = fcmp ugt double %6, 0x3FE759EDD04F68DE
  %8 = tail call double @sin(double noundef %1) #11, !tbaa !53
  br i1 %7, label %11, label %9

9:                                                ; preds = %3
  %10 = fmul double %8, 0x3FF2D97C7F3321D2
  br label %_ZL14healpix_sphere5PJ_LP.exit

11:                                               ; preds = %3
  %12 = tail call double @llvm.fabs.f64(double %8)
  %13 = fsub double 1.000000e+00, %12
  %14 = fmul double %13, 3.000000e+00
  %15 = tail call double @sqrt(double noundef %14) #11, !tbaa !53
  %16 = fmul double %0, 2.000000e+00
  %17 = fdiv double %16, 0x400921FB54442D18
  %18 = fadd double %17, 2.000000e+00
  %19 = tail call double @llvm.floor.f64(double %18)
  %20 = fcmp ult double %19, 4.000000e+00
  %21 = tail call double @llvm.fmuladd.f64(double %19, double 0x3FF921FB54442D18, double 0xC002D97C7F3321D2)
  %22 = select i1 %20, double %21, double 0x4002D97C7F3321D2
  %23 = fsub double %0, %22
  %24 = tail call double @llvm.fmuladd.f64(double %23, double %15, double %22)
  %25 = fcmp ogt double %1, 0.000000e+00
  %26 = fcmp olt double %1, 0.000000e+00
  %27 = sitofp i1 %26 to double
  %28 = fmul double %27, 0x3FE921FB54442D18
  %29 = select i1 %25, double 0x3FE921FB54442D18, double %28
  %30 = fsub double 2.000000e+00, %15
  %31 = fmul double %29, %30
  br label %_ZL14healpix_sphere5PJ_LP.exit

_ZL14healpix_sphere5PJ_LP.exit:                   ; preds = %9, %11
  %.sroa.014.0.i = phi double [ %0, %9 ], [ %24, %11 ]
  %.sroa.3.0.i = phi double [ %10, %9 ], [ %31, %11 ]
  %32 = getelementptr inbounds nuw i8, ptr %5, i64 8
  %33 = load double, ptr %32, align 8, !tbaa !44
  %34 = fneg double %33
  %35 = tail call double @cos(double noundef %34) #11, !tbaa !53
  %36 = tail call double @sin(double noundef %34) #11, !tbaa !53
  %37 = fneg double %36
  %38 = fmul double %.sroa.3.0.i, %37
  %39 = tail call double @llvm.fmuladd.f64(double %.sroa.014.0.i, double %35, double %38)
  %40 = tail call double @cos(double noundef %34) #11, !tbaa !53
  %41 = tail call double @sin(double noundef %34) #11, !tbaa !53
  %42 = fmul double %.sroa.014.0.i, %41
  %43 = tail call double @llvm.fmuladd.f64(double %.sroa.3.0.i, double %40, double %42)
  %.fca.0.insert.i8 = insertvalue { double, double } poison, double %39, 0
  %.fca.1.insert.i9 = insertvalue { double, double } %.fca.0.insert.i8, double %43, 1
  ret { double, double } %.fca.1.insert.i9
}